; Listing generated by Microsoft (R) Optimizing Compiler Version 19.00.23506.0 

	TITLE	D:\Projects\TaintAnalysis\AntiTaint\Epilog\src\func-alloca.c
	.686P
	.XMM
	include listing.inc
	.model	flat

INCLUDELIB MSVCRT
INCLUDELIB OLDNAMES

_DATA	SEGMENT
$SG5567	DB	'%d', 00H
_DATA	ENDS
PUBLIC	___local_stdio_printf_options
PUBLIC	___local_stdio_scanf_options
PUBLIC	__vfprintf_l
PUBLIC	_printf
PUBLIC	__vfscanf_l
PUBLIC	_scanf
PUBLIC	_func
PUBLIC	_main
EXTRN	__imp____acrt_iob_func:PROC
EXTRN	__imp____stdio_common_vfprintf:PROC
EXTRN	__imp____stdio_common_vfscanf:PROC
EXTRN	_gets:PROC
EXTRN	__alloca_probe_16:PROC
_DATA	SEGMENT
COMM	?_OptionsStorage@?1??__local_stdio_printf_options@@9@9:QWORD							; `__local_stdio_printf_options'::`2'::_OptionsStorage
COMM	?_OptionsStorage@?1??__local_stdio_scanf_options@@9@9:QWORD							; `__local_stdio_scanf_options'::`2'::_OptionsStorage
_DATA	ENDS
; Function compile flags: /Odtpy
; File d:\projects\taintanalysis\antitaint\epilog\src\func-alloca.c
_TEXT	SEGMENT
_main	PROC

; 20   : {

	push	ebp
	mov	ebp, esp

; 21   :   func();

	call	_func

; 22   :   return 0;

	xor	eax, eax

; 23   : }

	pop	ebp
	ret	0
_main	ENDP
_TEXT	ENDS
; Function compile flags: /Odtpy
; File d:\projects\taintanalysis\antitaint\epilog\src\func-alloca.c
_TEXT	SEGMENT
tv68 = -12						; size = 4
_sz$ = -8						; size = 4
_buf$ = -4						; size = 4
_func	PROC

; 10   : {

	push	ebp
	mov	ebp, esp
	sub	esp, 12					; 0000000cH

; 11   :   int sz;
; 12   :   char *buf;
; 13   :   scanf("%d", &sz);

	lea	eax, DWORD PTR _sz$[ebp]
	push	eax
	push	OFFSET $SG5567
	call	_scanf
	add	esp, 8

; 14   :   buf = (char*)alloca(sz);

	mov	eax, DWORD PTR _sz$[ebp]
	call	__alloca_probe_16
	mov	DWORD PTR tv68[ebp], esp
	mov	ecx, DWORD PTR tv68[ebp]
	mov	DWORD PTR _buf$[ebp], ecx

; 15   :   gets(buf);

	mov	edx, DWORD PTR _buf$[ebp]
	push	edx
	call	_gets
	add	esp, 4

; 16   :   printf(buf);

	mov	eax, DWORD PTR _buf$[ebp]
	push	eax
	call	_printf
	add	esp, 4

; 17   : }

	lea	esp, DWORD PTR [ebp-12]
	mov	esp, ebp
	pop	ebp
	ret	0
_func	ENDP
_TEXT	ENDS
; Function compile flags: /Odtpy
; File c:\program files (x86)\windows kits\10\include\10.0.10240.0\ucrt\stdio.h
;	COMDAT _scanf
_TEXT	SEGMENT
__Result$ = -8						; size = 4
__ArgList$ = -4						; size = 4
__Format$ = 8						; size = 4
_scanf	PROC						; COMDAT

; 1276 : {

	push	ebp
	mov	ebp, esp
	sub	esp, 8

; 1277 :     int _Result;
; 1278 :     va_list _ArgList;
; 1279 :     __crt_va_start(_ArgList, _Format);

	lea	eax, DWORD PTR __Format$[ebp+4]
	mov	DWORD PTR __ArgList$[ebp], eax

; 1280 :     _Result = _vfscanf_l(stdin, _Format, NULL, _ArgList);

	mov	ecx, DWORD PTR __ArgList$[ebp]
	push	ecx
	push	0
	mov	edx, DWORD PTR __Format$[ebp]
	push	edx
	push	0
	call	DWORD PTR __imp____acrt_iob_func
	add	esp, 4
	push	eax
	call	__vfscanf_l
	add	esp, 16					; 00000010H
	mov	DWORD PTR __Result$[ebp], eax

; 1281 :     __crt_va_end(_ArgList);

	mov	DWORD PTR __ArgList$[ebp], 0

; 1282 :     return _Result;

	mov	eax, DWORD PTR __Result$[ebp]

; 1283 : }

	mov	esp, ebp
	pop	ebp
	ret	0
_scanf	ENDP
_TEXT	ENDS
; Function compile flags: /Odtpy
; File c:\program files (x86)\windows kits\10\include\10.0.10240.0\ucrt\stdio.h
;	COMDAT __vfscanf_l
_TEXT	SEGMENT
__Stream$ = 8						; size = 4
__Format$ = 12						; size = 4
__Locale$ = 16						; size = 4
__ArgList$ = 20						; size = 4
__vfscanf_l PROC					; COMDAT

; 1058 : {

	push	ebp
	mov	ebp, esp

; 1059 :     return __stdio_common_vfscanf(

	mov	eax, DWORD PTR __ArgList$[ebp]
	push	eax
	mov	ecx, DWORD PTR __Locale$[ebp]
	push	ecx
	mov	edx, DWORD PTR __Format$[ebp]
	push	edx
	mov	eax, DWORD PTR __Stream$[ebp]
	push	eax
	call	___local_stdio_scanf_options
	mov	ecx, DWORD PTR [eax+4]
	push	ecx
	mov	edx, DWORD PTR [eax]
	push	edx
	call	DWORD PTR __imp____stdio_common_vfscanf
	add	esp, 24					; 00000018H

; 1060 :         _CRT_INTERNAL_LOCAL_SCANF_OPTIONS,
; 1061 :         _Stream, _Format, _Locale, _ArgList);
; 1062 : }

	pop	ebp
	ret	0
__vfscanf_l ENDP
_TEXT	ENDS
; Function compile flags: /Odtpy
; File c:\program files (x86)\windows kits\10\include\10.0.10240.0\ucrt\stdio.h
;	COMDAT _printf
_TEXT	SEGMENT
__Result$ = -8						; size = 4
__ArgList$ = -4						; size = 4
__Format$ = 8						; size = 4
_printf	PROC						; COMDAT

; 950  : {

	push	ebp
	mov	ebp, esp
	sub	esp, 8

; 951  :     int _Result;
; 952  :     va_list _ArgList;
; 953  :     __crt_va_start(_ArgList, _Format);

	lea	eax, DWORD PTR __Format$[ebp+4]
	mov	DWORD PTR __ArgList$[ebp], eax

; 954  :     _Result = _vfprintf_l(stdout, _Format, NULL, _ArgList);

	mov	ecx, DWORD PTR __ArgList$[ebp]
	push	ecx
	push	0
	mov	edx, DWORD PTR __Format$[ebp]
	push	edx
	push	1
	call	DWORD PTR __imp____acrt_iob_func
	add	esp, 4
	push	eax
	call	__vfprintf_l
	add	esp, 16					; 00000010H
	mov	DWORD PTR __Result$[ebp], eax

; 955  :     __crt_va_end(_ArgList);

	mov	DWORD PTR __ArgList$[ebp], 0

; 956  :     return _Result;

	mov	eax, DWORD PTR __Result$[ebp]

; 957  : }

	mov	esp, ebp
	pop	ebp
	ret	0
_printf	ENDP
_TEXT	ENDS
; Function compile flags: /Odtpy
; File c:\program files (x86)\windows kits\10\include\10.0.10240.0\ucrt\stdio.h
;	COMDAT __vfprintf_l
_TEXT	SEGMENT
__Stream$ = 8						; size = 4
__Format$ = 12						; size = 4
__Locale$ = 16						; size = 4
__ArgList$ = 20						; size = 4
__vfprintf_l PROC					; COMDAT

; 638  : {

	push	ebp
	mov	ebp, esp

; 639  :     return __stdio_common_vfprintf(_CRT_INTERNAL_LOCAL_PRINTF_OPTIONS, _Stream, _Format, _Locale, _ArgList);

	mov	eax, DWORD PTR __ArgList$[ebp]
	push	eax
	mov	ecx, DWORD PTR __Locale$[ebp]
	push	ecx
	mov	edx, DWORD PTR __Format$[ebp]
	push	edx
	mov	eax, DWORD PTR __Stream$[ebp]
	push	eax
	call	___local_stdio_printf_options
	mov	ecx, DWORD PTR [eax+4]
	push	ecx
	mov	edx, DWORD PTR [eax]
	push	edx
	call	DWORD PTR __imp____stdio_common_vfprintf
	add	esp, 24					; 00000018H

; 640  : }

	pop	ebp
	ret	0
__vfprintf_l ENDP
_TEXT	ENDS
; Function compile flags: /Odtpy
; File c:\program files (x86)\windows kits\10\include\10.0.10240.0\ucrt\corecrt_stdio_config.h
;	COMDAT ___local_stdio_scanf_options
_TEXT	SEGMENT
___local_stdio_scanf_options PROC			; COMDAT

; 82   : {

	push	ebp
	mov	ebp, esp

; 83   :     static unsigned __int64 _OptionsStorage;
; 84   :     return &_OptionsStorage;

	mov	eax, OFFSET ?_OptionsStorage@?1??__local_stdio_scanf_options@@9@9 ; `__local_stdio_scanf_options'::`2'::_OptionsStorage

; 85   : }

	pop	ebp
	ret	0
___local_stdio_scanf_options ENDP
_TEXT	ENDS
; Function compile flags: /Odtpy
; File c:\program files (x86)\windows kits\10\include\10.0.10240.0\ucrt\corecrt_stdio_config.h
;	COMDAT ___local_stdio_printf_options
_TEXT	SEGMENT
___local_stdio_printf_options PROC			; COMDAT

; 73   : {

	push	ebp
	mov	ebp, esp

; 74   :     static unsigned __int64 _OptionsStorage;
; 75   :     return &_OptionsStorage;

	mov	eax, OFFSET ?_OptionsStorage@?1??__local_stdio_printf_options@@9@9 ; `__local_stdio_printf_options'::`2'::_OptionsStorage

; 76   : }

	pop	ebp
	ret	0
___local_stdio_printf_options ENDP
_TEXT	ENDS
END
