; Listing generated by Microsoft (R) Optimizing Compiler Version 19.00.23506.0 

	TITLE	D:\Projects\TaintAnalysis\AntiTaint\Epilog\src\struct.c
	.686P
	.XMM
	include listing.inc
	.model	flat

INCLUDELIB MSVCRT
INCLUDELIB OLDNAMES

PUBLIC	___local_stdio_printf_options
PUBLIC	___local_stdio_scanf_options
PUBLIC	__vfprintf_l
PUBLIC	_printf
PUBLIC	__vfscanf_l
PUBLIC	_scanf
PUBLIC	_fill
PUBLIC	_func
PUBLIC	_main
PUBLIC	??_C@_08OOHKHLPO@?$CFd?5?$CFd?5?$CFd?$AA@	; `string'
PUBLIC	??_C@_0N@DHODEHCL@?$CFs?5?$CFd?5?$CFd?5?$CFd?6?$AA@ ; `string'
EXTRN	__imp____acrt_iob_func:PROC
EXTRN	__imp____stdio_common_vfprintf:PROC
EXTRN	__imp____stdio_common_vfscanf:PROC
EXTRN	_gets:PROC
EXTRN	@__security_check_cookie@4:PROC
EXTRN	___security_cookie:DWORD
_DATA	SEGMENT
COMM	?_OptionsStorage@?1??__local_stdio_printf_options@@9@9:QWORD							; `__local_stdio_printf_options'::`2'::_OptionsStorage
COMM	?_OptionsStorage@?1??__local_stdio_scanf_options@@9@9:QWORD							; `__local_stdio_scanf_options'::`2'::_OptionsStorage
_DATA	ENDS
;	COMDAT ??_C@_0N@DHODEHCL@?$CFs?5?$CFd?5?$CFd?5?$CFd?6?$AA@
CONST	SEGMENT
??_C@_0N@DHODEHCL@?$CFs?5?$CFd?5?$CFd?5?$CFd?6?$AA@ DB '%s %d %d %d', 0aH
	DB	00H						; `string'
CONST	ENDS
;	COMDAT ??_C@_08OOHKHLPO@?$CFd?5?$CFd?5?$CFd?$AA@
CONST	SEGMENT
??_C@_08OOHKHLPO@?$CFd?5?$CFd?5?$CFd?$AA@ DB '%d %d %d', 00H ; `string'
CONST	ENDS
; Function compile flags: /Ogtp
; File d:\projects\taintanalysis\antitaint\epilog\src\struct.c
;	COMDAT _main
_TEXT	SEGMENT
_main	PROC						; COMDAT

; 33   :   func();

	call	_func

; 34   :   return 0;

	xor	eax, eax

; 35   : }

	ret	0
_main	ENDP
_TEXT	ENDS
; Function compile flags: /Ogtp
; File d:\projects\taintanalysis\antitaint\epilog\src\struct.c
;	COMDAT _func
_TEXT	SEGMENT
_s$ = -36						; size = 24
_buf$ = -12						; size = 8
__$ArrayPad$ = -4					; size = 4
_func	PROC						; COMDAT

; 23   : {

	push	ebp
	mov	ebp, esp
	sub	esp, 36					; 00000024H
	mov	eax, DWORD PTR ___security_cookie
	xor	eax, ebp
	mov	DWORD PTR __$ArrayPad$[ebp], eax

; 24   :   struct S s;
; 25   :   char buf[8];
; 26   :   gets(buf);

	lea	eax, DWORD PTR _buf$[ebp]
	push	eax
	call	_gets

; 27   :   fill(&s);

	lea	eax, DWORD PTR _s$[ebp]
	push	eax
	call	_fill

; 28   :   printf("%s %d %d %d\n", buf, (int)s.a, (int)s.b, (int)s.c);

	push	DWORD PTR _s$[ebp+16]
	lea	eax, DWORD PTR _buf$[ebp]
	push	DWORD PTR _s$[ebp+8]
	push	DWORD PTR _s$[ebp]
	push	eax
	push	OFFSET ??_C@_0N@DHODEHCL@?$CFs?5?$CFd?5?$CFd?5?$CFd?6?$AA@
	call	_printf

; 29   : }

	mov	ecx, DWORD PTR __$ArrayPad$[ebp]
	add	esp, 28					; 0000001cH
	xor	ecx, ebp
	call	@__security_check_cookie@4
	mov	esp, ebp
	pop	ebp
	ret	0
_func	ENDP
_TEXT	ENDS
; Function compile flags: /Ogtp
; File d:\projects\taintanalysis\antitaint\epilog\src\struct.c
;	COMDAT _fill
_TEXT	SEGMENT
_c$ = -12						; size = 4
_b$ = -8						; size = 4
_a$ = -4						; size = 4
_s$ = 8							; size = 4
_fill	PROC						; COMDAT

; 14   : {

	push	ebp
	mov	ebp, esp
	sub	esp, 12					; 0000000cH

; 15   :   int a, b, c;
; 16   :   scanf("%d %d %d", &a, &b, &c);

	lea	eax, DWORD PTR _c$[ebp]
	push	eax
	lea	eax, DWORD PTR _b$[ebp]
	push	eax
	lea	eax, DWORD PTR _a$[ebp]
	push	eax
	push	OFFSET ??_C@_08OOHKHLPO@?$CFd?5?$CFd?5?$CFd?$AA@
	call	_scanf

; 17   :   s->a = a;

	mov	ecx, DWORD PTR _s$[ebp]
	add	esp, 16					; 00000010H
	mov	eax, DWORD PTR _a$[ebp]
	cdq
	mov	DWORD PTR [ecx], eax

; 18   :   s->b = b;

	mov	eax, DWORD PTR _b$[ebp]
	mov	DWORD PTR [ecx+4], edx
	cdq
	mov	DWORD PTR [ecx+8], eax

; 19   :   s->c = c;

	mov	eax, DWORD PTR _c$[ebp]
	mov	DWORD PTR [ecx+12], edx
	cdq
	mov	DWORD PTR [ecx+16], eax
	mov	DWORD PTR [ecx+20], edx

; 20   : }

	mov	esp, ebp
	pop	ebp
	ret	0
_fill	ENDP
_TEXT	ENDS
; Function compile flags: /Ogtp
; File c:\program files (x86)\windows kits\10\include\10.0.10240.0\ucrt\stdio.h
;	COMDAT _scanf
_TEXT	SEGMENT
__Format$ = 8						; size = 4
_scanf	PROC						; COMDAT

; 1276 : {

	push	ebp
	mov	ebp, esp

; 1277 :     int _Result;
; 1278 :     va_list _ArgList;
; 1279 :     __crt_va_start(_ArgList, _Format);
; 1280 :     _Result = _vfscanf_l(stdin, _Format, NULL, _ArgList);

	lea	eax, DWORD PTR __Format$[ebp+4]
	push	eax
	push	0
	push	DWORD PTR __Format$[ebp]
	push	0
	call	DWORD PTR __imp____acrt_iob_func
	add	esp, 4
	push	eax
	call	__vfscanf_l
	add	esp, 16					; 00000010H

; 1281 :     __crt_va_end(_ArgList);
; 1282 :     return _Result;
; 1283 : }

	pop	ebp
	ret	0
_scanf	ENDP
_TEXT	ENDS
; Function compile flags: /Ogtp
; File c:\program files (x86)\windows kits\10\include\10.0.10240.0\ucrt\stdio.h
;	COMDAT __vfscanf_l
_TEXT	SEGMENT
__Stream$ = 8						; size = 4
__Format$ = 12						; size = 4
__Locale$ = 16						; size = 4
__ArgList$ = 20						; size = 4
__vfscanf_l PROC					; COMDAT

; 1058 : {

	push	ebp
	mov	ebp, esp

; 1059 :     return __stdio_common_vfscanf(

	push	DWORD PTR __ArgList$[ebp]
	push	DWORD PTR __Locale$[ebp]
	push	DWORD PTR __Format$[ebp]
	push	DWORD PTR __Stream$[ebp]
	call	___local_stdio_scanf_options
	push	DWORD PTR [eax+4]
	push	DWORD PTR [eax]
	call	DWORD PTR __imp____stdio_common_vfscanf
	add	esp, 24					; 00000018H

; 1060 :         _CRT_INTERNAL_LOCAL_SCANF_OPTIONS,
; 1061 :         _Stream, _Format, _Locale, _ArgList);
; 1062 : }

	pop	ebp
	ret	0
__vfscanf_l ENDP
_TEXT	ENDS
; Function compile flags: /Ogtp
; File c:\program files (x86)\windows kits\10\include\10.0.10240.0\ucrt\stdio.h
;	COMDAT _printf
_TEXT	SEGMENT
__Format$ = 8						; size = 4
_printf	PROC						; COMDAT

; 950  : {

	push	ebp
	mov	ebp, esp

; 951  :     int _Result;
; 952  :     va_list _ArgList;
; 953  :     __crt_va_start(_ArgList, _Format);
; 954  :     _Result = _vfprintf_l(stdout, _Format, NULL, _ArgList);

	lea	eax, DWORD PTR __Format$[ebp+4]
	push	eax
	push	0
	push	DWORD PTR __Format$[ebp]
	push	1
	call	DWORD PTR __imp____acrt_iob_func
	add	esp, 4
	push	eax
	call	__vfprintf_l
	add	esp, 16					; 00000010H

; 955  :     __crt_va_end(_ArgList);
; 956  :     return _Result;
; 957  : }

	pop	ebp
	ret	0
_printf	ENDP
_TEXT	ENDS
; Function compile flags: /Ogtp
; File c:\program files (x86)\windows kits\10\include\10.0.10240.0\ucrt\stdio.h
;	COMDAT __vfprintf_l
_TEXT	SEGMENT
__Stream$ = 8						; size = 4
__Format$ = 12						; size = 4
__Locale$ = 16						; size = 4
__ArgList$ = 20						; size = 4
__vfprintf_l PROC					; COMDAT

; 638  : {

	push	ebp
	mov	ebp, esp

; 639  :     return __stdio_common_vfprintf(_CRT_INTERNAL_LOCAL_PRINTF_OPTIONS, _Stream, _Format, _Locale, _ArgList);

	push	DWORD PTR __ArgList$[ebp]
	push	DWORD PTR __Locale$[ebp]
	push	DWORD PTR __Format$[ebp]
	push	DWORD PTR __Stream$[ebp]
	call	___local_stdio_printf_options
	push	DWORD PTR [eax+4]
	push	DWORD PTR [eax]
	call	DWORD PTR __imp____stdio_common_vfprintf
	add	esp, 24					; 00000018H

; 640  : }

	pop	ebp
	ret	0
__vfprintf_l ENDP
_TEXT	ENDS
; Function compile flags: /Ogtp
; File c:\program files (x86)\windows kits\10\include\10.0.10240.0\ucrt\corecrt_stdio_config.h
;	COMDAT ___local_stdio_scanf_options
_TEXT	SEGMENT
___local_stdio_scanf_options PROC			; COMDAT

; 83   :     static unsigned __int64 _OptionsStorage;
; 84   :     return &_OptionsStorage;

	mov	eax, OFFSET ?_OptionsStorage@?1??__local_stdio_scanf_options@@9@9 ; `__local_stdio_scanf_options'::`2'::_OptionsStorage

; 85   : }

	ret	0
___local_stdio_scanf_options ENDP
_TEXT	ENDS
; Function compile flags: /Ogtp
; File c:\program files (x86)\windows kits\10\include\10.0.10240.0\ucrt\corecrt_stdio_config.h
;	COMDAT ___local_stdio_printf_options
_TEXT	SEGMENT
___local_stdio_printf_options PROC			; COMDAT

; 74   :     static unsigned __int64 _OptionsStorage;
; 75   :     return &_OptionsStorage;

	mov	eax, OFFSET ?_OptionsStorage@?1??__local_stdio_printf_options@@9@9 ; `__local_stdio_printf_options'::`2'::_OptionsStorage

; 76   : }

	ret	0
___local_stdio_printf_options ENDP
_TEXT	ENDS
END
