; Listing generated by Microsoft (R) Optimizing Compiler Version 19.00.23506.0 

include listing.inc

INCLUDELIB MSVCRT
INCLUDELIB OLDNAMES

PUBLIC	__local_stdio_printf_options
PUBLIC	_vfprintf_l
PUBLIC	printf
PUBLIC	func
PUBLIC	main
EXTRN	__imp___acrt_iob_func:PROC
EXTRN	__imp___stdio_common_vfprintf:PROC
EXTRN	gets:PROC
EXTRN	__GSHandlerCheck:PROC
EXTRN	__security_check_cookie:PROC
EXTRN	__security_cookie:QWORD
_DATA	SEGMENT
COMM	?_OptionsStorage@?1??__local_stdio_printf_options@@9@9:QWORD							; `__local_stdio_printf_options'::`2'::_OptionsStorage
_DATA	ENDS
;	COMDAT pdata
pdata	SEGMENT
$pdata$_vfprintf_l DD imagerel $LN3
	DD	imagerel $LN3+68
	DD	imagerel $unwind$_vfprintf_l
pdata	ENDS
;	COMDAT pdata
pdata	SEGMENT
$pdata$printf DD imagerel $LN3
	DD	imagerel $LN3+88
	DD	imagerel $unwind$printf
pdata	ENDS
pdata	SEGMENT
$pdata$func DD	imagerel $LN3
	DD	imagerel $LN3+122
	DD	imagerel $unwind$func
$pdata$main DD	imagerel $LN3
	DD	imagerel $LN3+202
	DD	imagerel $unwind$main
pdata	ENDS
xdata	SEGMENT
$unwind$func DD	031a19H
	DD	07007a20bH
	DD	06006H
	DD	imagerel __GSHandlerCheck
	DD	040H
$unwind$main DD	041c19H
	DD	019010aH
	DD	060027003H
	DD	imagerel __GSHandlerCheck
	DD	0b8H
xdata	ENDS
;	COMDAT xdata
xdata	SEGMENT
$unwind$printf DD 011801H
	DD	06218H
xdata	ENDS
;	COMDAT xdata
xdata	SEGMENT
$unwind$_vfprintf_l DD 011801H
	DD	06218H
xdata	ENDS
; Function compile flags: /Odtp
; File d:\projects\taintanalysis\antitaint\epilog\src\func-rets.c
_TEXT	SEGMENT
z$ = 32
$T1 = 40
$T2 = 64
$T3 = 88
a$ = 112
b$ = 136
c$ = 160
__$ArrayPad$ = 184
main	PROC

; 25   : {

$LN3:
	push	rsi
	push	rdi
	sub	rsp, 200				; 000000c8H
	mov	rax, QWORD PTR __security_cookie
	xor	rax, rsp
	mov	QWORD PTR __$ArrayPad$[rsp], rax

; 26   :   struct S a,b,c;
; 27   :   int z = 0;

	mov	DWORD PTR z$[rsp], 0

; 28   :   a = func();

	lea	rcx, QWORD PTR $T1[rsp]
	call	func
	lea	rcx, QWORD PTR a$[rsp]
	mov	rdi, rcx
	mov	rsi, rax
	mov	ecx, 20
	rep movsb

; 29   :   z += a.a;

	mov	eax, DWORD PTR a$[rsp]
	mov	ecx, DWORD PTR z$[rsp]
	add	ecx, eax
	mov	eax, ecx
	mov	DWORD PTR z$[rsp], eax

; 30   :   b = func();

	lea	rcx, QWORD PTR $T2[rsp]
	call	func
	lea	rcx, QWORD PTR b$[rsp]
	mov	rdi, rcx
	mov	rsi, rax
	mov	ecx, 20
	rep movsb

; 31   :   c = func();

	lea	rcx, QWORD PTR $T3[rsp]
	call	func
	lea	rcx, QWORD PTR c$[rsp]
	mov	rdi, rcx
	mov	rsi, rax
	mov	ecx, 20
	rep movsb

; 32   :   z += c.c + b.b;

	mov	eax, DWORD PTR b$[rsp+4]
	mov	ecx, DWORD PTR c$[rsp+8]
	add	ecx, eax
	mov	eax, ecx
	mov	ecx, DWORD PTR z$[rsp]
	add	ecx, eax
	mov	eax, ecx
	mov	DWORD PTR z$[rsp], eax

; 33   :   return z;

	mov	eax, DWORD PTR z$[rsp]

; 34   : }

	mov	rcx, QWORD PTR __$ArrayPad$[rsp]
	xor	rcx, rsp
	call	__security_check_cookie
	add	rsp, 200				; 000000c8H
	pop	rdi
	pop	rsi
	ret	0
main	ENDP
_TEXT	ENDS
; Function compile flags: /Odtp
; File d:\projects\taintanalysis\antitaint\epilog\src\func-rets.c
_TEXT	SEGMENT
s$ = 32
buf$ = 56
__$ArrayPad$ = 64
$T1 = 112
func	PROC

; 15   : {

$LN3:
	mov	QWORD PTR [rsp+8], rcx
	push	rsi
	push	rdi
	sub	rsp, 88					; 00000058H
	mov	rax, QWORD PTR __security_cookie
	xor	rax, rsp
	mov	QWORD PTR __$ArrayPad$[rsp], rax

; 16   :   char buf[8];
; 17   :   struct S s;
; 18   :   s.a = (int)gets(buf) - (int)buf;

	lea	rcx, QWORD PTR buf$[rsp]
	call	gets
	lea	rcx, QWORD PTR buf$[rsp]
	sub	eax, ecx
	mov	DWORD PTR s$[rsp], eax

; 19   :   s.b = printf(buf);

	lea	rcx, QWORD PTR buf$[rsp]
	call	printf
	mov	DWORD PTR s$[rsp+4], eax

; 20   :   s.c = s.a + s.b;

	mov	eax, DWORD PTR s$[rsp+4]
	mov	ecx, DWORD PTR s$[rsp]
	add	ecx, eax
	mov	eax, ecx
	mov	DWORD PTR s$[rsp+8], eax

; 21   :   return s;

	lea	rax, QWORD PTR s$[rsp]
	mov	rdi, QWORD PTR $T1[rsp]
	mov	rsi, rax
	mov	ecx, 20
	rep movsb
	mov	rax, QWORD PTR $T1[rsp]

; 22   : }

	mov	rcx, QWORD PTR __$ArrayPad$[rsp]
	xor	rcx, rsp
	call	__security_check_cookie
	add	rsp, 88					; 00000058H
	pop	rdi
	pop	rsi
	ret	0
func	ENDP
_TEXT	ENDS
; Function compile flags: /Odtp
; File c:\program files (x86)\windows kits\10\include\10.0.10240.0\ucrt\stdio.h
;	COMDAT printf
_TEXT	SEGMENT
_Result$ = 32
_ArgList$ = 40
_Format$ = 64
printf	PROC						; COMDAT

; 950  : {

$LN3:
	mov	QWORD PTR [rsp+8], rcx
	mov	QWORD PTR [rsp+16], rdx
	mov	QWORD PTR [rsp+24], r8
	mov	QWORD PTR [rsp+32], r9
	sub	rsp, 56					; 00000038H

; 951  :     int _Result;
; 952  :     va_list _ArgList;
; 953  :     __crt_va_start(_ArgList, _Format);

	lea	rax, QWORD PTR _Format$[rsp+8]
	mov	QWORD PTR _ArgList$[rsp], rax

; 954  :     _Result = _vfprintf_l(stdout, _Format, NULL, _ArgList);

	mov	ecx, 1
	call	QWORD PTR __imp___acrt_iob_func
	mov	r9, QWORD PTR _ArgList$[rsp]
	xor	r8d, r8d
	mov	rdx, QWORD PTR _Format$[rsp]
	mov	rcx, rax
	call	_vfprintf_l
	mov	DWORD PTR _Result$[rsp], eax

; 955  :     __crt_va_end(_ArgList);

	mov	QWORD PTR _ArgList$[rsp], 0

; 956  :     return _Result;

	mov	eax, DWORD PTR _Result$[rsp]

; 957  : }

	add	rsp, 56					; 00000038H
	ret	0
printf	ENDP
_TEXT	ENDS
; Function compile flags: /Odtp
; File c:\program files (x86)\windows kits\10\include\10.0.10240.0\ucrt\stdio.h
;	COMDAT _vfprintf_l
_TEXT	SEGMENT
_Stream$ = 64
_Format$ = 72
_Locale$ = 80
_ArgList$ = 88
_vfprintf_l PROC					; COMDAT

; 638  : {

$LN3:
	mov	QWORD PTR [rsp+32], r9
	mov	QWORD PTR [rsp+24], r8
	mov	QWORD PTR [rsp+16], rdx
	mov	QWORD PTR [rsp+8], rcx
	sub	rsp, 56					; 00000038H

; 639  :     return __stdio_common_vfprintf(_CRT_INTERNAL_LOCAL_PRINTF_OPTIONS, _Stream, _Format, _Locale, _ArgList);

	call	__local_stdio_printf_options
	mov	rcx, QWORD PTR _ArgList$[rsp]
	mov	QWORD PTR [rsp+32], rcx
	mov	r9, QWORD PTR _Locale$[rsp]
	mov	r8, QWORD PTR _Format$[rsp]
	mov	rdx, QWORD PTR _Stream$[rsp]
	mov	rcx, QWORD PTR [rax]
	call	QWORD PTR __imp___stdio_common_vfprintf

; 640  : }

	add	rsp, 56					; 00000038H
	ret	0
_vfprintf_l ENDP
_TEXT	ENDS
; Function compile flags: /Odtp
; File c:\program files (x86)\windows kits\10\include\10.0.10240.0\ucrt\corecrt_stdio_config.h
;	COMDAT __local_stdio_printf_options
_TEXT	SEGMENT
__local_stdio_printf_options PROC			; COMDAT

; 74   :     static unsigned __int64 _OptionsStorage;
; 75   :     return &_OptionsStorage;

	lea	rax, OFFSET FLAT:?_OptionsStorage@?1??__local_stdio_printf_options@@9@9 ; `__local_stdio_printf_options'::`2'::_OptionsStorage

; 76   : }

	ret	0
__local_stdio_printf_options ENDP
_TEXT	ENDS
END
